(dp0
I4
(dp1
I1
F0.8075295479183252
sI2
F0.4774738548482816
sI3
F0.42419777980439055
sI4
F0.3943904768093439
sI5
F0.38285337116289725
sI6
F0.3456978450361253
sI7
F0.3276347708962468
sI8
F0.2814837241542102
sI9
F0.2726092843715845
sI10
F0.2595236597750822
sI11
F0.25756332879815586
sI12
F0.255695257974682
sI13
F0.2533762219849523
sI14
F0.24638163851939895
sI15
F0.24401790845566917
sI16
F0.23633180634857906
sI17
F0.22784988483802995
sI18
F0.2095164862030845
sI19
F0.19384413772164594
sI20
F0.1798168268585226
sI21
F0.1748169422104261
sI22
F0.14426219810734117
sI23
F0.1317016822014111
sI24
F0.119077916265676
sI25
F0.11281847810000983
sI26
F0.0986528146391275
sI27
F0.08806370223310259
sI28
F0.08485496284251828
sI29
F0.08380187457199635
sI30
F0.08234456063284837
sI31
F0.07905885208501921
sI32
F0.07864501795169036
sI33
F0.07820672551615536
sI34
F0.07774172706375627
sI35
F0.07724745179159614
sI36
F0.07672094055551562
sI37
F0.0761587632356674
sI38
F0.07555691284539025
sI39
F0.07491066805054791
sI40
F0.07421441205849937
sI41
F0.07346139011232518
sI42
F0.07264337876331889
sI43
F0.07175022532676446
sI44
F0.06346463403117268
sI45
F0.05811581285029963
sI46
F0.05463972124380735
sI47
F0.046293346181345306
sI48
F0.04516682544812346
sI49
F0.03242278790705789
sI50
F0.032119104173650506
sI51
F0.03179415370401729
sI52
F0.03144533988493663
sI53
F0.031069559171305966
sI54
F0.030663059455315927
sI55
F0.03022124514598102
sI56
F0.029738402895879108
sI57
F0.029207305693551826
sI58
F0.023308483054987957
sI59
F0.02304286072877555
sI60
F0.022754077634204235
sI61
F0.02243843523821256
sI62
F0.016220511200992764
sI63
F0.011958707798885368
sI64
F0.011872304384485114
sI65
F0.011780395034023049
sI66
F0.011682401113689313
sI67
F0.011577647897103758
sI68
F0.00840255482581282
sI69
F0.008277056849497278
sI70
F0.008141920161783903
sI71
F0.007995773189188092
sI72
F0.00783692808502361
sI73
F0.007663275005622847
sI74
F0.007472128062035004
sI75
F0.007259993708812405
sI76
F0.007022209322450872
sI77
F0.006752353331672005
sI78
F0.006441227760616317
sI79
F0.0060749759032556454
sI80
F0.005631264390697054
sI81
F0.005070488277869581
sI82
F0.0043112480472041765
sI83
F0.003134796238244514
sI84
F0.0
sI85
F0.0
sI86
F0.0
sI87
F0.0
sI88
F0.0
sI89
F0.0
sI90
F0.0
sI91
F0.0
sI92
F0.0
sI93
F0.0
sI94
F0.0
sI95
F0.0
sI96
F0.0
sI97
F0.0
sI98
F0.0
sI99
F0.0
sI100
F0.0
sI101
F0.0
sI102
F0.0
sI103
F0.0
sI104
F0.0
sI105
F0.0
sI106
F0.0
sI107
F0.0
sI108
F0.0
sI109
F0.0
sI110
F0.0
sI111
F0.0
sI112
F0.0
sI113
F0.0
sI114
F0.0
sI115
F0.0
sI116
F0.0
sI117
F0.0
sI118
F0.0
sI119
F0.0
sI120
F0.0
sI121
F0.0
sI122
F0.0
sI123
F0.0
sI124
F0.0
sI125
F0.0
sI126
F0.0
sI127
F0.0
sI128
F0.0
sI129
F0.0
sI130
F0.0
sI131
F0.0
sI132
F0.0
sI133
F0.0
sI134
F0.0
sI135
F0.0
sI136
F0.0
sI137
F0.0
sI138
F0.0
sI139
F0.0
sI140
F0.0
sI141
F0.0
sI142
F0.0
sI143
F0.0
sI144
F0.0
sI145
F0.0
sI146
F0.0
sI147
F0.0
sI148
F0.0
sI149
F0.0
sI150
F0.0
sI151
F0.0
sI152
F0.0
sI153
F0.0
sI154
F0.0
sI155
F0.0
sI156
F0.0
sI157
F0.0
sI158
F0.0
sI159
F0.0
sI160
F0.0
sI161
F0.0
sI162
F0.0
sI163
F0.0
sI164
F0.0
sI165
F0.0
sI166
F0.0
sI167
F0.0
sI168
F0.0
sI169
F0.0
sI170
F0.0
sI171
F0.0
sI172
F0.0
sI173
F0.0
sI174
F0.0
sI175
F0.0
sI176
F0.0
sI177
F0.0
sI178
F0.0
sI179
F0.0
sI180
F0.0
sI181
F0.0
sI182
F0.0
sI183
F0.0
sI184
F0.0
sI185
F0.0
sI186
F0.0
sI187
F0.0
sI188
F0.0
sI189
F0.0
sI190
F0.0
sI191
F0.0
sI192
F0.0
sI193
F0.0
sI194
F0.0
sI195
F0.0
sI196
F0.0
sI197
F0.0
sI198
F0.0
sI199
F0.0
sI200
F0.0
sI201
F0.0
sI202
F0.0
sI203
F0.0
sI204
F0.0
sI205
F0.0
sI206
F0.0
sI207
F0.0
sI208
F0.0
sI209
F0.0
sI210
F0.0
sI211
F0.0
sI212
F0.0
sI213
F0.0
sI214
F0.0
sI215
F0.0
sI216
F0.0
sI217
F0.0
sI218
F0.0
sI219
F0.0
sI220
F0.0
sI221
F0.0
sI222
F0.0
sI223
F0.0
sI224
F0.0
sI225
F0.0
sI226
F0.0
sI227
F0.0
sI228
F0.0
sI229
F0.0
sI230
F0.0
sI231
F0.0
sI232
F0.0
sI233
F0.0
sI234
F0.0
sI235
F0.0
sI236
F0.0
sI237
F0.0
sI238
F0.0
sI239
F0.0
sI240
F0.0
sI241
F0.0
sI242
F0.0
sI243
F0.0
sI244
F0.0
sI245
F0.0
sI246
F0.0
sI247
F0.0
sI248
F0.0
sI249
F0.0
sI250
F0.0
sI251
F0.0
sI252
F0.0
sI253
F0.0
sI254
F0.0
sI255
F0.0
sI256
F0.0
sI257
F0.0
sI258
F0.0
sI259
F0.0
sI260
F0.0
sI261
F0.0
sI262
F0.0
sI263
F0.0
sI264
F0.0
sI265
F0.0
sI266
F0.0
sI267
F0.0
sI268
F0.0
sI269
F0.0
sI270
F0.0
sI271
F0.0
sI272
F0.0
sI273
F0.0
sI274
F0.0
sI275
F0.0
sI276
F0.0
sI277
F0.0
sI278
F0.0
sI279
F0.0
sI280
F0.0
sI281
F0.0
sI282
F0.0
sI283
F0.0
sI284
F0.0
sI285
F0.0
sI286
F0.0
sI287
F0.0
sI288
F0.0
sI289
F0.0
sI290
F0.0
sI291
F0.0
sI292
F0.0
sI293
F0.0
sI294
F0.0
sI295
F0.0
sI296
F0.0
sI297
F0.0
sI298
F0.0
sI299
F0.0
sI300
F0.0
sI301
F0.0
sI302
F0.0
sI303
F0.0
sI304
F0.0
sI305
F0.0
sI306
F0.0
sI307
F0.0
sI308
F0.0
sI309
F0.0
sI310
F0.0
sI311
F0.0
sI312
F0.0
sI313
F0.0
sI314
F0.0
sI315
F0.0
sI316
F0.0
sI317
F0.0
sI318
F0.0
sI319
F0.0
sI320
F0.0
sI321
F0.0
sI322
F0.0
sI323
F0.0
sI324
F0.0
sI325
F0.0
sI326
F0.0
sI327
F0.0
sI328
F0.0
sI329
F0.0
sI330
F0.0
sI331
F0.0
sI332
F0.0
sI333
F0.0
sI334
F0.0
sI335
F0.0
sI336
F0.0
sI337
F0.0
sI338
F0.0
sI339
F0.0
sI340
F0.0
sI341
F0.0
sI342
F0.0
sI343
F0.0
sI344
F0.0
sI345
F0.0
sI346
F0.0
sI347
F0.0
sI348
F0.0
sI349
F0.0
sI350
F0.0
sI351
F0.0
sI352
F0.0
sI353
F0.0
sI354
F0.0
sI355
F0.0
sI356
F0.0
sI357
F0.0
sI358
F0.0
sI359
F0.0
sI360
F0.0
sI361
F0.0
sI362
F0.0
sI363
F0.0
sI364
F0.0
sI365
F0.0
sI366
F0.0
sI367
F0.0
sI368
F0.0
sI369
F0.0
sI370
F0.0
sI371
F0.0
sI372
F0.0
sI373
F0.0
sI374
F0.0
sI375
F0.0
sI376
F0.0
sI377
F0.0
sI378
F0.0
sI379
F0.0
sI380
F0.0
sI381
F0.0
sI382
F0.0
sI383
F0.0
sI384
F0.0
sI385
F0.0
sI386
F0.0
sI387
F0.0
sI388
F0.0
sI389
F0.0
sI390
F0.0
sI391
F0.0
sI392
F0.0
sI393
F0.0
sI394
F0.0
sI395
F0.0
sI396
F0.0
sI397
F0.0
sI398
F0.0
sI399
F0.0
sI400
F0.0
sI401
F0.0
sI402
F0.0
sI403
F0.0
sI404
F0.0
sI405
F0.0
sI406
F0.0
sI407
F0.0
sI408
F0.0
sI409
F0.0
sI410
F0.0
sI411
F0.0
sI412
F0.0
sI413
F0.0
sI414
F0.0
sI415
F0.0
sI416
F0.0
sI417
F0.0
sI418
F0.0
sI419
F0.0
sI420
F0.0
sI421
F0.0
sI422
F0.0
sI423
F0.0
sI424
F0.0
sI425
F0.0
sI426
F0.0
sI427
F0.0
sI428
F0.0
sI429
F0.0
sI430
F0.0
sI431
F0.0
sI432
F0.0
sI433
F0.0
sI434
F0.0
sI435
F0.0
sI436
F0.0
sI437
F0.0
sI438
F0.0
sI439
F0.0
sI440
F0.0
sI441
F0.0
sI442
F0.0
sI443
F0.0
sI444
F0.0
sI445
F0.0
sI446
F0.0
sI447
F0.0
sI448
F0.0
sI449
F0.0
sI450
F0.0
sI451
F0.0
sI452
F0.0
sI453
F0.0
sI454
F0.0
sI455
F0.0
sI456
F0.0
sI457
F0.0
sI458
F0.0
sI459
F0.0
sI460
F0.0
sI461
F0.0
sI462
F0.0
sI463
F0.0
sI464
F0.0
sI465
F0.0
sI466
F0.0
sI467
F0.0
sI468
F0.0
sI469
F0.0
sI470
F0.0
sI471
F0.0
sI472
F0.0
sI473
F0.0
sI474
F0.0
sI475
F0.0
sI476
F0.0
sI477
F0.0
sI478
F0.0
sI479
F0.0
sI480
F0.0
sI481
F0.0
sI482
F0.0
sI483
F0.0
sI484
F0.0
sI485
F0.0
sI486
F0.0
sI487
F0.0
sI488
F0.0
sI489
F0.0
sI490
F0.0
sI491
F0.0
sI492
F0.0
sI493
F0.0
sI494
F0.0
sI495
F0.0
sI496
F0.0
sI497
F0.0
sI498
F0.0
sI499
F0.0
sI500
F0.0
sI501
F0.0
sI502
F0.0
sI503
F0.0
sI504
F0.0
sI505
F0.0
sI506
F0.0
sI507
F0.0
sI508
F0.0
sI509
F0.0
sI510
F0.0
sI511
F0.0
sI512
F0.0
sI513
F0.0
sI514
F0.0
sI515
F0.0
sI516
F0.0
sI517
F0.0
sI518
F0.0
sI519
F0.0
sI520
F0.0
sI521
F0.0
sI522
F0.0
sI523
F0.0
sI524
F0.0
sI525
F0.0
sI526
F0.0
sI527
F0.0
sI528
F0.0
sI529
F0.0
sI530
F0.0
sI531
F0.0
sI532
F0.0
sI533
F0.0
sI534
F0.0
sI535
F0.0
sI536
F0.0
sI537
F0.0
sI538
F0.0
sI539
F0.0
sI540
F0.0
sI541
F0.0
sI542
F0.0
sI543
F0.0
sI544
F0.0
sI545
F0.0
sI546
F0.0
sI547
F0.0
sI548
F0.0
sI549
F0.0
sI550
F0.0
sI551
F0.0
sI552
F0.0
sI553
F0.0
sI554
F0.0
sI555
F0.0
sI556
F0.0
sI557
F0.0
sI558
F0.0
sI559
F0.0
sI560
F0.0
sI561
F0.0
sI562
F0.0
sI563
F0.0
sI564
F0.0
sI565
F0.0
sI566
F0.0
sI567
F0.0
sI568
F0.0
sI569
F0.0
sI570
F0.0
sI571
F0.0
sI572
F0.0
sI573
F0.0
sI574
F0.0
sI575
F0.0
sI576
F0.0
sI577
F0.0
sI578
F0.0
sI579
F0.0
sI580
F0.0
sI581
F0.0
sI582
F0.0
sI583
F0.0
sI584
F0.0
sI585
F0.0
sI586
F0.0
sI587
F0.0
sI588
F0.0
sI589
F0.0
sI590
F0.0
sI591
F0.0
sI592
F0.0
sI593
F0.0
sI594
F0.0
sI595
F0.0
sI596
F0.0
sI597
F0.0
sI598
F0.0
sI599
F0.0
sI600
F0.0
sI601
F0.0
sI602
F0.0
sI603
F0.0
sI604
F0.0
sI605
F0.0
sI606
F0.0
sI607
F0.0
sI608
F0.0
sI609
F0.0
sI610
F0.0
sI611
F0.0
sI612
F0.0
sI613
F0.0
sI614
F0.0
sI615
F0.0
sI616
F0.0
sI617
F0.0
sI618
F0.0
sI619
F0.0
sI620
F0.0
sI621
F0.0
sI622
F0.0
sI623
F0.0
sI624
F0.0
sI625
F0.0
sI626
F0.0
sI627
F0.0
sI628
F0.0
sI629
F0.0
sI630
F0.0
sI631
F0.0
sI632
F0.0
sI633
F0.0
sI634
F0.0
sI635
F0.0
sI636
F0.0
sI637
F0.0
sI638
F0.0
sI639
F0.0
sI640
F0.0
sI641
F0.0
sI642
F0.0
sI643
F0.0
sI644
F0.0
sI645
F0.0
sI646
F0.0
sI647
F0.0
sI648
F0.0
sI649
F0.0
sI650
F0.0
sI651
F0.0
sI652
F0.0
sI653
F0.0
sI654
F0.0
sI655
F0.0
sI656
F0.0
sI657
F0.0
sI658
F0.0
sI659
F0.0
sI660
F0.0
sI661
F0.0
sI662
F0.0
sI663
F0.0
sI664
F0.0
sI665
F0.0
sI666
F0.0
sI667
F0.0
sI668
F0.0
sI669
F0.0
sI670
F0.0
sI671
F0.0
sI672
F0.0
sI673
F0.0
sI674
F0.0
sI675
F0.0
sI676
F0.0
sI677
F0.0
sI678
F0.0
sI679
F0.0
sI680
F0.0
sI681
F0.0
sI682
F0.0
sI683
F0.0
sI684
F0.0
sI685
F0.0
sI686
F0.0
sI687
F0.0
sI688
F0.0
sI689
F0.0
sI690
F0.0
sI691
F0.0
sI692
F0.0
sI693
F0.0
sI694
F0.0
sI695
F0.0
sI696
F0.0
sI697
F0.0
sI698
F0.0
sI699
F0.0
sI700
F0.0
sI701
F0.0
sI702
F0.0
sI703
F0.0
sI704
F0.0
sI705
F0.0
sI706
F0.0
sI707
F0.0
sI708
F0.0
sI709
F0.0
sI710
F0.0
sI711
F0.0
sI712
F0.0
sI713
F0.0
sI714
F0.0
sI715
F0.0
sI716
F0.0
sI717
F0.0
sI718
F0.0
sI719
F0.0
ssI6
(dp2
I1
F0.8394746478951466
sI2
F0.2733669134882223
sI3
F0.2647281980507201
sI4
F0.25600167749759445
sI5
F0.24998548666103998
sI6
F0.23588133785764784
sI7
F0.22830978464889112
sI8
F0.20755882178773033
sI9
F0.18544538247806774
sI10
F0.16616053549973964
sI11
F0.16380804196059034
sI12
F0.15892732136980273
sI13
F0.149054419135247
sI14
F0.14087764467826167
sI15
F0.13948018189574724
sI16
F0.13912012888215178
sI17
F0.13872358921945305
sI18
F0.13828184493115322
sI19
F0.1317068839584385
sI20
F0.12826624811697226
sI21
F0.12470191181850662
sI22
F0.1238002920037385
sI23
F0.12250801326287476
sI24
F0.08908919655553836
sI25
F0.0822166599680578
sI26
F0.08216311208068093
sI27
F0.07922466810873012
sI28
F0.07627474283115125
sI29
F0.07620335515855806
sI30
F0.07612853589776261
sI31
F0.07605015352142908
sI32
F0.06468886844625288
sI33
F0.06465239145436039
sI34
F0.06461374270601333
sI35
F0.06457284626459787
sI36
F0.06452962249211834
sI37
F0.06448398780558669
sI38
F0.06150759672629812
sI39
F0.04736150471950004
sI40
F0.047342574852590184
sI41
F0.047322338345933024
sI42
F0.04730075354472896
sI43
F0.04432792447478495
sI44
F0.04429915352460708
sI45
F0.04426888512070051
sI46
F0.044237069635370545
sI47
F0.04420365515485119
sI48
F0.030167348591886384
sI49
F0.03016117508548269
sI50
F0.019135025193613448
sI51
F0.01616107515239571
sI52
F0.01616762846452839
sI53
F0.016174056298397393
sI54
F0.016180355677860244
sI55
F0.01618652354826631
sI56
F0.016192556773816643
sI57
F0.016198452134813298
sI58
F0.016204206324791175
sI59
F0.016209815947527014
sI60
F0.016215277513919584
sI61
F0.016220587438733253
sI62
F0.016225742037198666
sI63
F0.016230737521462285
sI64
F0.016235569996877183
sI65
F0.016240235458125803
sI66
F0.0162447297851661
sI67
F0.01624904873899129
sI68
F0.01625318795719154
sI69
F0.016257142949308752
sI70
F0.01626090909196997
sI71
F0.016264481623789406
sI72
F0.01626785564002255
sI73
F0.016271026086961557
sI74
F0.016273987756052252
sI75
F0.016276735277720656
sI76
F0.01627926311488729
sI77
F0.016281565556153472
sI78
F0.016283636708637035
sI79
F0.016285470490437274
sI80
F0.016287060622704144
sI81
F0.016288400621288033
sI82
F0.016289483787942777
sI83
F0.01629030320105117
sI84
F0.0053983113248098555
sI85
F0.005406764678672191
sI86
F0.005415244271984044
sI87
F0.005423750222427262
sI88
F0.0054322826482809785
sI89
F0.0022762847063975437
sI90
F0.002279855294563379
sI91
F0.0022834367954705976
sI92
F0.0022870292538578556
sI93
F0.0022906327145793067
sI94
F0.0022942472226000704
sI95
F0.002297872822992573
sI96
F0.0023015095609319933
sI97
F0.002305157481691097
sI98
F0.0023088166306360217
sI99
F0.0023124870532204894
sI100
F0.0023161687949806737
sI101
F0.002319861901529107
sI102
F0.002323566418549192
sI103
F0.0023272823917885915
sI104
F0.002331009867052191
sI105
F0.0023347488901960126
sI106
F0.002338499507118913
sI107
F0.002342261763755513
sI108
F0.0023460357060680697
sI109
F0.0023498213800376986
sI110
F0.0023536188316557152
sI111
F0.002357428106914349
sI112
F0.0023612492517966766
sI113
F0.0023650823122665613
sI114
F0.002368927334257804
sI115
F0.002372784363662851
sI116
F0.0023766534463209683
sI117
F0.0023805346280055344
sI118
F0.0023844279544113383
sI119
F0.0023883334711406385
sI120
F0.0023922512236888623
sI121
F0.00239618125742931
sI122
F0.002400123617597662
sI123
F0.0024040783492749857
sI124
F0.0024080454973706873
sI125
F0.002412025106603684
sI126
F0.0024160172214836967
sI127
F0.002420021886290719
sI128
F0.0024240391450539743
sI129
F0.0024280690415294766
sI130
F0.0024321116191770636
sI131
F0.0024361669211353148
sI132
F0.0024402349901961303
sI133
F0.002444315868777524
sI134
F0.002448409598895081
sI135
F0.002452516222132172
sI136
F0.002456635779608282
sI137
F0.002460768311946113
sI138
F0.0024649138592365977
sI139
F0.0024690724610024395
sI140
F0.0024732441561595066
sI141
F0.0024774289829762913
sI142
F0.002481626979031338
sI143
F0.002485838181168108
sI144
F0.0024900626254476354
sI145
F0.002494300347099155
sI146
F0.0024985513804668203
sI147
F0.0025028157589548107
sI148
F0.002507093514968784
sI149
F0.0025113846798541476
sI150
F0.0025156892838312708
sI151
F0.0025200073559266626
sI152
F0.0025243389239008513
sI153
F0.0025286840141714503
sI154
F0.0025330426517324316
sI155
F0.002537414860069086
sI156
F0.002541800661067107
sI157
F0.002546200074917469
sI158
F0.00255061312001492
sI159
F0.0025550398128513594
sI160
F0.002559480167901996
sI161
F0.002563934197505651
sI162
F0.00256840191173702
sI163
F0.0025728833182719073
sI164
F0.002577378422243772
sI165
F0.0025818872260917653
sI166
F0.002586409729398879
sI167
F0.0025909459287208714
sI168
F0.002595495817402946
sI169
F0.0026000593853863665
sI170
F0.002604636619001401
sI171
F0.0026092275007476157
sI172
F0.002613832009058954
sI173
F0.002618450118054201
sI174
F0.0026230817972702066
sI175
F0.0026277270113771707
sI176
F0.0026323857198745763
sI177
F0.0026370578767662377
sI178
F0.0026417434302127034
sI179
F0.002646442322159058
sI180
F0.0026511544879365837
sI181
F0.002655879855835355
sI182
F0.0026606183466463033
sI183
F0.0026653698731690925
sI184
F0.002670134339683758
sI185
F0.002674911641382456
sI186
F0.002679701663757924
sI187
F0.0026845042819450657
sI188
F0.002689319360010717
sI189
F0.0026941467501880056
sI190
F0.00269898629204866
sI191
F0.002703837811609242
sI192
F0.0027087011203630884
sI193
F0.0027135760142324703
sI194
F0.0027184622724321563
sI195
F0.0027233596562358914
sI196
F0.0027282679076362417
sI197
F0.0027331867478863022
sI198
F0.0027381158759120327
sI199
F0.0027430549665805504
sI200
F0.0027480036688098445
sI201
F0.0027529616035020838
sI202
F0.0027579283612818154
sI203
F0.0027629035000165314
sI204
F0.002767886542095403
sI205
F0.002772876971438113
sI206
F0.002777874230201871
sI207
F0.002782877715150985
sI208
F0.002787886773647833
sI209
F0.002792900699218181
sI210
F0.00279791872663787
sI211
F0.002802940026479072
sI212
F0.0028079636990457086
sI213
F0.002812988767617253
sI214
F0.0028180141709061536
sI215
F0.002823038754621636
sI216
F0.002828061262012493
sI217
F0.002833080323243054
sI218
F0.002838094443430177
sI219
F0.002843101989140895
sI220
F0.002848101173114205
sI221
F0.0028530900369292205
sI222
F0.0028580664312897186
sI223
F0.0028630279935345196
sI224
F0.002867972121906926
sI225
F0.002872895946025917
sI226
F0.0028777962928877854
sI227
F0.0028826696475894396
sI228
F0.0028875121077921295
sI229
F0.002892319330729585
sI230
F0.002897086471297571
sI231
F0.002901808109423102
sI232
F0.002906478164483114
sI233
F0.002911089793996955
sI234
F0.0029156352731147194
sI235
F0.0029201058505158523
sI236
F0.0029244915751493726
sI237
F0.0029287810866923613
sI238
F0.0029329613605417384
sI239
F0.0029370173953978916
sI240
F0.002940931827773775
sI241
F0.0029446844526784285
sI242
F0.0029482516227041723
sI243
F0.0029516054879367005
sI244
F0.002954713025218613
sI245
F0.0029575347853528517
sI246
F0.00296002325775107
sI247
F0.0029621207089091093
sI248
F0.002963756285969437
sI249
F0.0029648420762826925
sI250
F0.002965267655779665
sI251
F0.0029648924036442537
sI252
F0.0029635344369182406
sI253
F0.002960954292818869
sI254
F0.002956830198977403
sI255
F0.0029507193937754286
sI256
F0.002941995357000967
sI257
F0.002929741404177801
sI258
F0.002912560573643135
sI259
F0.002888213264109712
sI260
F0.0028528677422320365
sI261
F0.0027993747381509764
sI262
F0.0027126633939793714
sI263
F0.002554421400529067
sI264
F0.002188183807439825
sI265
F0.0
sI266
F0.0
sI267
F0.0
sI268
F0.0
sI269
F0.0
sI270
F0.0
sI271
F0.0
sI272
F0.0
sI273
F0.0
sI274
F0.0
sI275
F0.0
sI276
F0.0
sI277
F0.0
sI278
F0.0
sI279
F0.0
sI280
F0.0
sI281
F0.0
sI282
F0.0
sI283
F0.0
sI284
F0.0
sI285
F0.0
sI286
F0.0
sI287
F0.0
sI288
F0.0
sI289
F0.0
sI290
F0.0
sI291
F0.0
sI292
F0.0
sI293
F0.0
sI294
F0.0
sI295
F0.0
sI296
F0.0
sI297
F0.0
sI298
F0.0
sI299
F0.0
sI300
F0.0
sI301
F0.0
sI302
F0.0
sI303
F0.0
sI304
F0.0
sI305
F0.0
sI306
F0.0
sI307
F0.0
sI308
F0.0
sI309
F0.0
sI310
F0.0
sI311
F0.0
sI312
F0.0
sI313
F0.0
sI314
F0.0
sI315
F0.0
sI316
F0.0
sI317
F0.0
sI318
F0.0
sI319
F0.0
sI320
F0.0
sI321
F0.0
sI322
F0.0
sI323
F0.0
sI324
F0.0
sI325
F0.0
sI326
F0.0
sI327
F0.0
sI328
F0.0
sI329
F0.0
sI330
F0.0
sI331
F0.0
sI332
F0.0
sI333
F0.0
sI334
F0.0
sI335
F0.0
sI336
F0.0
sI337
F0.0
sI338
F0.0
sI339
F0.0
sI340
F0.0
sI341
F0.0
sI342
F0.0
sI343
F0.0
sI344
F0.0
sI345
F0.0
sI346
F0.0
sI347
F0.0
sI348
F0.0
sI349
F0.0
sI350
F0.0
sI351
F0.0
sI352
F0.0
sI353
F0.0
sI354
F0.0
sI355
F0.0
sI356
F0.0
sI357
F0.0
sI358
F0.0
sI359
F0.0
sI360
F0.0
sI361
F0.0
sI362
F0.0
sI363
F0.0
sI364
F0.0
sI365
F0.0
sI366
F0.0
sI367
F0.0
sI368
F0.0
sI369
F0.0
sI370
F0.0
sI371
F0.0
sI372
F0.0
sI373
F0.0
sI374
F0.0
sI375
F0.0
sI376
F0.0
sI377
F0.0
sI378
F0.0
sI379
F0.0
sI380
F0.0
sI381
F0.0
sI382
F0.0
sI383
F0.0
sI384
F0.0
sI385
F0.0
sI386
F0.0
sI387
F0.0
sI388
F0.0
sI389
F0.0
sI390
F0.0
sI391
F0.0
sI392
F0.0
sI393
F0.0
sI394
F0.0
sI395
F0.0
sI396
F0.0
sI397
F0.0
sI398
F0.0
sI399
F0.0
sI400
F0.0
sI401
F0.0
sI402
F0.0
sI403
F0.0
sI404
F0.0
sI405
F0.0
sI406
F0.0
sI407
F0.0
sI408
F0.0
sI409
F0.0
sI410
F0.0
sI411
F0.0
sI412
F0.0
sI413
F0.0
sI414
F0.0
sI415
F0.0
sI416
F0.0
sI417
F0.0
sI418
F0.0
sI419
F0.0
sI420
F0.0
sI421
F0.0
sI422
F0.0
sI423
F0.0
sI424
F0.0
sI425
F0.0
sI426
F0.0
sI427
F0.0
sI428
F0.0
sI429
F0.0
sI430
F0.0
sI431
F0.0
sI432
F0.0
sI433
F0.0
sI434
F0.0
sI435
F0.0
sI436
F0.0
sI437
F0.0
sI438
F0.0
sI439
F0.0
sI440
F0.0
sI441
F0.0
sI442
F0.0
sI443
F0.0
sI444
F0.0
sI445
F0.0
sI446
F0.0
sI447
F0.0
sI448
F0.0
sI449
F0.0
sI450
F0.0
sI451
F0.0
sI452
F0.0
sI453
F0.0
sI454
F0.0
sI455
F0.0
sI456
F0.0
sI457
F0.0
sI458
F0.0
sI459
F0.0
sI460
F0.0
sI461
F0.0
sI462
F0.0
sI463
F0.0
sI464
F0.0
sI465
F0.0
sI466
F0.0
sI467
F0.0
sI468
F0.0
sI469
F0.0
sI470
F0.0
sI471
F0.0
sI472
F0.0
sI473
F0.0
sI474
F0.0
sI475
F0.0
sI476
F0.0
sI477
F0.0
sI478
F0.0
sI479
F0.0
sI480
F0.0
sI481
F0.0
sI482
F0.0
sI483
F0.0
sI484
F0.0
sI485
F0.0
sI486
F0.0
sI487
F0.0
sI488
F0.0
sI489
F0.0
sI490
F0.0
sI491
F0.0
sI492
F0.0
sI493
F0.0
sI494
F0.0
sI495
F0.0
sI496
F0.0
sI497
F0.0
sI498
F0.0
sI499
F0.0
sI500
F0.0
sI501
F0.0
sI502
F0.0
sI503
F0.0
sI504
F0.0
sI505
F0.0
sI506
F0.0
sI507
F0.0
sI508
F0.0
sI509
F0.0
sI510
F0.0
sI511
F0.0
sI512
F0.0
sI513
F0.0
sI514
F0.0
sI515
F0.0
sI516
F0.0
sI517
F0.0
sI518
F0.0
sI519
F0.0
sI520
F0.0
sI521
F0.0
sI522
F0.0
sI523
F0.0
sI524
F0.0
sI525
F0.0
sI526
F0.0
sI527
F0.0
sI528
F0.0
sI529
F0.0
sI530
F0.0
sI531
F0.0
sI532
F0.0
sI533
F0.0
sI534
F0.0
sI535
F0.0
sI536
F0.0
sI537
F0.0
sI538
F0.0
sI539
F0.0
sI540
F0.0
sI541
F0.0
sI542
F0.0
sI543
F0.0
sI544
F0.0
sI545
F0.0
sI546
F0.0
sI547
F0.0
sI548
F0.0
sI549
F0.0
sI550
F0.0
sI551
F0.0
sI552
F0.0
sI553
F0.0
sI554
F0.0
sI555
F0.0
sI556
F0.0
sI557
F0.0
sI558
F0.0
sI559
F0.0
sI560
F0.0
sI561
F0.0
sI562
F0.0
sI563
F0.0
sI564
F0.0
sI565
F0.0
sI566
F0.0
sI567
F0.0
sI568
F0.0
sI569
F0.0
sI570
F0.0
sI571
F0.0
sI572
F0.0
sI573
F0.0
sI574
F0.0
sI575
F0.0
sI576
F0.0
sI577
F0.0
sI578
F0.0
sI579
F0.0
sI580
F0.0
sI581
F0.0
sI582
F0.0
sI583
F0.0
sI584
F0.0
sI585
F0.0
sI586
F0.0
sI587
F0.0
sI588
F0.0
sI589
F0.0
sI590
F0.0
sI591
F0.0
sI592
F0.0
sI593
F0.0
sI594
F0.0
sI595
F0.0
sI596
F0.0
sI597
F0.0
sI598
F0.0
sI599
F0.0
sI600
F0.0
sI601
F0.0
sI602
F0.0
sI603
F0.0
sI604
F0.0
sI605
F0.0
sI606
F0.0
sI607
F0.0
sI608
F0.0
sI609
F0.0
sI610
F0.0
sI611
F0.0
sI612
F0.0
sI613
F0.0
sI614
F0.0
sI615
F0.0
sI616
F0.0
sI617
F0.0
sI618
F0.0
sI619
F0.0
sI620
F0.0
sI621
F0.0
sI622
F0.0
sI623
F0.0
sI624
F0.0
sI625
F0.0
sI626
F0.0
sI627
F0.0
sI628
F0.0
sI629
F0.0
sI630
F0.0
sI631
F0.0
sI632
F0.0
sI633
F0.0
sI634
F0.0
sI635
F0.0
sI636
F0.0
sI637
F0.0
sI638
F0.0
sI639
F0.0
sI640
F0.0
sI641
F0.0
sI642
F0.0
sI643
F0.0
sI644
F0.0
sI645
F0.0
sI646
F0.0
sI647
F0.0
sI648
F0.0
sI649
F0.0
sI650
F0.0
sI651
F0.0
sI652
F0.0
sI653
F0.0
sI654
F0.0
sI655
F0.0
sI656
F0.0
sI657
F0.0
sI658
F0.0
sI659
F0.0
sI660
F0.0
sI661
F0.0
sI662
F0.0
sI663
F0.0
sI664
F0.0
sI665
F0.0
sI666
F0.0
sI667
F0.0
sI668
F0.0
sI669
F0.0
sI670
F0.0
sI671
F0.0
sI672
F0.0
sI673
F0.0
sI674
F0.0
sI675
F0.0
sI676
F0.0
sI677
F0.0
sI678
F0.0
sI679
F0.0
sI680
F0.0
sI681
F0.0
sI682
F0.0
sI683
F0.0
sI684
F0.0
sI685
F0.0
sI686
F0.0
sI687
F0.0
sI688
F0.0
sI689
F0.0
sI690
F0.0
sI691
F0.0
sI692
F0.0
sI693
F0.0
sI694
F0.0
sI695
F0.0
sI696
F0.0
sI697
F0.0
sI698
F0.0
sI699
F0.0
sI700
F0.0
sI701
F0.0
sI702
F0.0
sI703
F0.0
sI704
F0.0
sI705
F0.0
sI706
F0.0
sI707
F0.0
sI708
F0.0
sI709
F0.0
sI710
F0.0
sI711
F0.0
sI712
F0.0
sI713
F0.0
sI714
F0.0
sI715
F0.0
sI716
F0.0
sI717
F0.0
sI718
F0.0
sI719
F0.0
ss.